target datalayout = "e-m:e-p270:32:32-p271:32:32-p272:64:64-i64:64-i128:128-f80:128-n8:16:32:64-S128"
target triple = "x86_64-pc-linux-gnu"

%struct.Hop_Obj_t_ = type { %union.anon, %union.anon.0, ptr, ptr, i32, i32 }
%union.anon = type { ptr }
%union.anon.0 = type { ptr }

; Function Attrs: inlinehint nounwind uwtable
define internal i32 @Hop_IsComplement(ptr noundef %0) #1 {
  %2 = alloca ptr, align 8
  store ptr %0, ptr %2, align 8, !tbaa !3
  %3 = load ptr, ptr %2, align 8, !tbaa !3
  %4 = ptrtoint ptr %3 to i64
  %5 = and i64 %4, 1
  %6 = trunc i64 %5 to i32
  ret i32 %6
}

; Function Attrs: inlinehint nounwind uwtable
define internal i32 @Hop_ObjFaninC1(ptr noundef %0) #1 {
  %2 = alloca ptr, align 8
  store ptr %0, ptr %2, align 8, !tbaa !3
  %3 = load ptr, ptr %2, align 8, !tbaa !3
  %4 = getelementptr inbounds nuw %struct.Hop_Obj_t_, ptr %3, i32 0, i32 3
  %5 = load ptr, ptr %4, align 8, !tbaa !13
  %6 = call i32 @Hop_IsComplement(ptr noundef %5)
  ret i32 %6
}

; Function Attrs: inlinehint nounwind uwtable
define internal ptr @Hop_NotCond(ptr noundef %0, i32 noundef %1) #1 {
  %3 = alloca ptr, align 8
  %4 = alloca i32, align 4
  store ptr %0, ptr %3, align 8, !tbaa !3
  store i32 %1, ptr %4, align 4, !tbaa !21
  %5 = load ptr, ptr %3, align 8, !tbaa !3
  %6 = ptrtoint ptr %5 to i64
  %7 = load i32, ptr %4, align 4, !tbaa !21
  %8 = sext i32 %7 to i64
  %9 = xor i64 %6, %8
  %10 = inttoptr i64 %9 to ptr
  ret ptr %10
}

; Function Attrs: inlinehint nounwind uwtable
define internal i32 @Hop_ObjFaninC0(ptr noundef %0) #1 {
  %2 = alloca ptr, align 8
  store ptr %0, ptr %2, align 8, !tbaa !3
  %3 = load ptr, ptr %2, align 8, !tbaa !3
  %4 = getelementptr inbounds nuw %struct.Hop_Obj_t_, ptr %3, i32 0, i32 2
  %5 = load ptr, ptr %4, align 8, !tbaa !10
  %6 = call i32 @Hop_IsComplement(ptr noundef %5)
  ret i32 %6
}

; Function Attrs: inlinehint nounwind uwtable
define internal ptr @Hop_Regular(ptr noundef %0) #1 {
  %2 = alloca ptr, align 8
  store ptr %0, ptr %2, align 8, !tbaa !3
  %3 = load ptr, ptr %2, align 8, !tbaa !3
  %4 = ptrtoint ptr %3 to i64
  %5 = and i64 %4, -2
  %6 = inttoptr i64 %5 to ptr
  ret ptr %6
}

; Function Attrs: inlinehint nounwind uwtable
define internal void @Hop_ObjSetMarkA(ptr noundef %0) #1 {
  %2 = alloca ptr, align 8
  store ptr %0, ptr %2, align 8, !tbaa !3
  %3 = load ptr, ptr %2, align 8, !tbaa !3
  %4 = getelementptr inbounds nuw %struct.Hop_Obj_t_, ptr %3, i32 0, i32 4
  %5 = load i32, ptr %4, align 8
  %6 = and i32 %5, -17
  %7 = or i32 %6, 16
  store i32 %7, ptr %4, align 8
  ret void
}

; Function Attrs: inlinehint nounwind uwtable
define internal ptr @Hop_ObjChild1Copy(ptr noundef %0) #1 {
  %2 = alloca ptr, align 8
  store ptr %0, ptr %2, align 8, !tbaa !3
  %3 = load ptr, ptr %2, align 8, !tbaa !3
  %4 = call ptr @Hop_ObjFanin1(ptr noundef %3)
  %5 = icmp ne ptr %4, null
  br i1 %5, label %6, label %14

6:                                                ; preds = %1
  %7 = load ptr, ptr %2, align 8, !tbaa !3
  %8 = call ptr @Hop_ObjFanin1(ptr noundef %7)
  %9 = getelementptr inbounds nuw %struct.Hop_Obj_t_, ptr %8, i32 0, i32 0
  %10 = load ptr, ptr %9, align 8, !tbaa !31
  %11 = load ptr, ptr %2, align 8, !tbaa !3
  %12 = call i32 @Hop_ObjFaninC1(ptr noundef %11)
  %13 = call ptr @Hop_NotCond(ptr noundef %10, i32 noundef %12)
  br label %15

14:                                               ; preds = %1
  br label %15

15:                                               ; preds = %14, %6
  %16 = phi ptr [ %13, %6 ], [ null, %14 ]
  ret ptr %16
}

; Function Attrs: inlinehint nounwind uwtable
define internal ptr @Hop_ObjChild0Copy(ptr noundef %0) #1 {
  %2 = alloca ptr, align 8
  store ptr %0, ptr %2, align 8, !tbaa !3
  %3 = load ptr, ptr %2, align 8, !tbaa !3
  %4 = call ptr @Hop_ObjFanin0(ptr noundef %3)
  %5 = icmp ne ptr %4, null
  br i1 %5, label %6, label %14

6:                                                ; preds = %1
  %7 = load ptr, ptr %2, align 8, !tbaa !3
  %8 = call ptr @Hop_ObjFanin0(ptr noundef %7)
  %9 = getelementptr inbounds nuw %struct.Hop_Obj_t_, ptr %8, i32 0, i32 0
  %10 = load ptr, ptr %9, align 8, !tbaa !31
  %11 = load ptr, ptr %2, align 8, !tbaa !3
  %12 = call i32 @Hop_ObjFaninC0(ptr noundef %11)
  %13 = call ptr @Hop_NotCond(ptr noundef %10, i32 noundef %12)
  br label %15

14:                                               ; preds = %1
  br label %15

15:                                               ; preds = %14, %6
  %16 = phi ptr [ %13, %6 ], [ null, %14 ]
  ret ptr %16
}

; Function Attrs: inlinehint nounwind uwtable
define internal ptr @Hop_ObjFanin1(ptr noundef %0) #1 {
  %2 = alloca ptr, align 8
  store ptr %0, ptr %2, align 8, !tbaa !3
  %3 = load ptr, ptr %2, align 8, !tbaa !3
  %4 = getelementptr inbounds nuw %struct.Hop_Obj_t_, ptr %3, i32 0, i32 3
  %5 = load ptr, ptr %4, align 8, !tbaa !13
  %6 = call ptr @Hop_Regular(ptr noundef %5)
  ret ptr %6
}

; Function Attrs: inlinehint nounwind uwtable
define internal ptr @Hop_ObjFanin0(ptr noundef %0) #1 {
  %2 = alloca ptr, align 8
  store ptr %0, ptr %2, align 8, !tbaa !3
  %3 = load ptr, ptr %2, align 8, !tbaa !3
  %4 = getelementptr inbounds nuw %struct.Hop_Obj_t_, ptr %3, i32 0, i32 2
  %5 = load ptr, ptr %4, align 8, !tbaa !10
  %6 = call ptr @Hop_Regular(ptr noundef %5)
  ret ptr %6
}

; Function Attrs: inlinehint nounwind uwtable
define internal i32 @Hop_ObjIsPi(ptr noundef %0) #1 {
  %2 = alloca ptr, align 8
  store ptr %0, ptr %2, align 8, !tbaa !3
  %3 = load ptr, ptr %2, align 8, !tbaa !3
  %4 = getelementptr inbounds nuw %struct.Hop_Obj_t_, ptr %3, i32 0, i32 4
  %5 = load i32, ptr %4, align 8
  %6 = and i32 %5, 7
  %7 = icmp eq i32 %6, 2
  %8 = zext i1 %7 to i32
  ret i32 %8
}

; Function Attrs: inlinehint nounwind uwtable
define internal i32 @Hop_ObjIsConst1(ptr noundef %0) #1 {
  %2 = alloca ptr, align 8
  store ptr %0, ptr %2, align 8, !tbaa !3
  %3 = load ptr, ptr %2, align 8, !tbaa !3
  %4 = getelementptr inbounds nuw %struct.Hop_Obj_t_, ptr %3, i32 0, i32 4
  %5 = load i32, ptr %4, align 8
  %6 = and i32 %5, 7
  %7 = icmp eq i32 %6, 1
  %8 = zext i1 %7 to i32
  ret i32 %8
}

; Function Attrs: inlinehint nounwind uwtable
define internal i32 @Hop_ObjIsMarkA(ptr noundef %0) #1 {
  %2 = alloca ptr, align 8
  store ptr %0, ptr %2, align 8, !tbaa !3
  %3 = load ptr, ptr %2, align 8, !tbaa !3
  %4 = getelementptr inbounds nuw %struct.Hop_Obj_t_, ptr %3, i32 0, i32 4
  %5 = load i32, ptr %4, align 8
  %6 = lshr i32 %5, 4
  %7 = and i32 %6, 1
  ret i32 %7
}

; Function Attrs: nounwind uwtable
define void @Hop_Compose_rec(ptr noundef %0, ptr noundef %1, ptr noundef %2, ptr noundef %3) #0 {
  %5 = alloca ptr, align 8
  %6 = alloca ptr, align 8
  %7 = alloca ptr, align 8
  %8 = alloca ptr, align 8
  store ptr %0, ptr %5, align 8, !tbaa !19
  store ptr %1, ptr %6, align 8, !tbaa !3
  store ptr %2, ptr %7, align 8, !tbaa !3
  store ptr %3, ptr %8, align 8, !tbaa !3
  %9 = load ptr, ptr %6, align 8, !tbaa !3
  %10 = call i32 @Hop_ObjIsMarkA(ptr noundef %9)
  %11 = icmp ne i32 %10, 0
  br i1 %11, label %12, label %13

12:                                               ; preds = %4
  br label %53

13:                                               ; preds = %4
  %14 = load ptr, ptr %6, align 8, !tbaa !3
  %15 = call i32 @Hop_ObjIsConst1(ptr noundef %14)
  %16 = icmp ne i32 %15, 0
  br i1 %16, label %21, label %17

17:                                               ; preds = %13
  %18 = load ptr, ptr %6, align 8, !tbaa !3
  %19 = call i32 @Hop_ObjIsPi(ptr noundef %18)
  %20 = icmp ne i32 %19, 0
  br i1 %20, label %21, label %33

21:                                               ; preds = %17, %13
  %22 = load ptr, ptr %6, align 8, !tbaa !3
  %23 = load ptr, ptr %8, align 8, !tbaa !3
  %24 = icmp eq ptr %22, %23
  br i1 %24, label %25, label %27

25:                                               ; preds = %21
  %26 = load ptr, ptr %7, align 8, !tbaa !3
  br label %29

27:                                               ; preds = %21
  %28 = load ptr, ptr %6, align 8, !tbaa !3
  br label %29

29:                                               ; preds = %27, %25
  %30 = phi ptr [ %26, %25 ], [ %28, %27 ]
  %31 = load ptr, ptr %6, align 8, !tbaa !3
  %32 = getelementptr inbounds nuw %struct.Hop_Obj_t_, ptr %31, i32 0, i32 0
  store ptr %30, ptr %32, align 8, !tbaa !31
  br label %53

33:                                               ; preds = %17
  %34 = load ptr, ptr %5, align 8, !tbaa !19
  %35 = load ptr, ptr %6, align 8, !tbaa !3
  %36 = call ptr @Hop_ObjFanin0(ptr noundef %35)
  %37 = load ptr, ptr %7, align 8, !tbaa !3
  %38 = load ptr, ptr %8, align 8, !tbaa !3
  call void @Hop_Compose_rec(ptr noundef %34, ptr noundef %36, ptr noundef %37, ptr noundef %38)
  %39 = load ptr, ptr %5, align 8, !tbaa !19
  %40 = load ptr, ptr %6, align 8, !tbaa !3
  %41 = call ptr @Hop_ObjFanin1(ptr noundef %40)
  %42 = load ptr, ptr %7, align 8, !tbaa !3
  %43 = load ptr, ptr %8, align 8, !tbaa !3
  call void @Hop_Compose_rec(ptr noundef %39, ptr noundef %41, ptr noundef %42, ptr noundef %43)
  %44 = load ptr, ptr %5, align 8, !tbaa !19
  %45 = load ptr, ptr %6, align 8, !tbaa !3
  %46 = call ptr @Hop_ObjChild0Copy(ptr noundef %45)
  %47 = load ptr, ptr %6, align 8, !tbaa !3
  %48 = call ptr @Hop_ObjChild1Copy(ptr noundef %47)
  %49 = call ptr @Hop_And(ptr noundef %44, ptr noundef %46, ptr noundef %48)
  %50 = load ptr, ptr %6, align 8, !tbaa !3
  %51 = getelementptr inbounds nuw %struct.Hop_Obj_t_, ptr %50, i32 0, i32 0
  store ptr %49, ptr %51, align 8, !tbaa !31
  %52 = load ptr, ptr %6, align 8, !tbaa !3
  call void @Hop_ObjSetMarkA(ptr noundef %52)
  br label %53

53:                                               ; preds = %33, %29, %12
  ret void
}