; Function Attrs: nounwind uwtable
define void @Hop_Compose_rec(ptr noundef %0, ptr noundef %1, ptr noundef %2, ptr noundef %3) local_unnamed_addr #0 {
  %5 = getelementptr i8, ptr %1, i64 32
  %.val = load i32, ptr %5, align 8
  %6 = and i32 %.val, 16
  %.not = icmp eq i32 %6, 0
  br i1 %.not, label %7, label %44

7:                                                ; preds = %4
  %8 = and i32 %.val, 7
  %.off = add nsw i32 %8, -1
  %switch = icmp ult i32 %.off, 2
  br i1 %switch, label %9, label %12

9:                                                ; preds = %7
  %10 = icmp eq ptr %1, %3
  %11 = select i1 %10, ptr %2, ptr %1
  store ptr %11, ptr %1, align 8, !tbaa !29
  br label %44

12:                                               ; preds = %7
  %13 = getelementptr i8, ptr %1, i64 16
  %.val23 = load ptr, ptr %13, align 8, !tbaa !3
  %14 = ptrtoint ptr %.val23 to i64
  %15 = and i64 %14, -2
  %16 = inttoptr i64 %15 to ptr
  tail call void @Hop_Compose_rec(ptr noundef %0, ptr noundef %16, ptr noundef %2, ptr noundef %3)
  %17 = getelementptr i8, ptr %1, i64 24
  %.val24 = load ptr, ptr %17, align 8, !tbaa !10
  %18 = ptrtoint ptr %.val24 to i64
  %19 = and i64 %18, -2
  %20 = inttoptr i64 %19 to ptr
  tail call void @Hop_Compose_rec(ptr noundef %0, ptr noundef %20, ptr noundef %2, ptr noundef %3)
  %.val25 = load ptr, ptr %13, align 8, !tbaa !3
  %21 = ptrtoint ptr %.val25 to i64
  %22 = and i64 %21, -2
  %.not.i = icmp eq i64 %22, 0
  br i1 %.not.i, label %Hop_ObjChild0Copy.exit, label %23

23:                                               ; preds = %12
  %24 = inttoptr i64 %22 to ptr
  %25 = load ptr, ptr %24, align 8, !tbaa !29
  %26 = and i64 %21, 1
  %27 = ptrtoint ptr %25 to i64
  %28 = xor i64 %26, %27
  %29 = inttoptr i64 %28 to ptr
  br label %Hop_ObjChild0Copy.exit

Hop_ObjChild0Copy.exit:                           ; preds = %12, %23
  %30 = phi ptr [ %29, %23 ], [ null, %12 ]
  %.val26 = load ptr, ptr %17, align 8, !tbaa !10
  %31 = ptrtoint ptr %.val26 to i64
  %32 = and i64 %31, -2
  %.not.i29 = icmp eq i64 %32, 0
  br i1 %.not.i29, label %Hop_ObjChild1Copy.exit, label %33

33:                                               ; preds = %Hop_ObjChild0Copy.exit
  %34 = inttoptr i64 %32 to ptr
  %35 = load ptr, ptr %34, align 8, !tbaa !29
  %36 = and i64 %31, 1
  %37 = ptrtoint ptr %35 to i64
  %38 = xor i64 %36, %37
  %39 = inttoptr i64 %38 to ptr
  br label %Hop_ObjChild1Copy.exit

Hop_ObjChild1Copy.exit:                           ; preds = %Hop_ObjChild0Copy.exit, %33
  %40 = phi ptr [ %39, %33 ], [ null, %Hop_ObjChild0Copy.exit ]
  %41 = tail call ptr @Hop_And(ptr noundef %0, ptr noundef %30, ptr noundef %40) #11
  store ptr %41, ptr %1, align 8, !tbaa !29
  %42 = load i32, ptr %5, align 8
  %43 = or i32 %42, 16
  store i32 %43, ptr %5, align 8
  br label %44

44:                                               ; preds = %4, %Hop_ObjChild1Copy.exit, %9
  ret void
}